target datalayout = "e-m:e-p270:32:32-p271:32:32-p272:64:64-i64:64-i128:128-f80:128-n8:16:32:64-S128"
target triple = "x86_64-pc-linux-gnu"

%"class.std::__weak_count" = type { ptr }
%"struct.std::atomic.6" = type { %"struct.std::__atomic_base.7" }
%"struct.std::__atomic_base.7" = type { i8 }
%"class.duckdb::enable_shared_from_this" = type { %"class.duckdb::weak_ptr" }
%"class.duckdb::weak_ptr" = type { %"class.std::weak_ptr" }
%"class.std::weak_ptr" = type { %"class.std::__weak_ptr" }
%"class.std::__weak_ptr" = type { ptr, %"class.std::__weak_count" }
%"struct.std::atomic" = type { %"struct.std::__atomic_base" }
%"struct.std::__atomic_base" = type { i64 }
%"class.duckdb::vector" = type { %"class.std::vector" }
%"class.std::vector" = type { %"struct.std::_Vector_base" }
%"struct.std::_Vector_base" = type { %"struct.std::_Vector_base<duckdb::weak_ptr<duckdb::Event>, std::allocator<duckdb::weak_ptr<duckdb::Event>>>::_Vector_impl" }
%"struct.std::_Vector_base<duckdb::weak_ptr<duckdb::Event>, std::allocator<duckdb::weak_ptr<duckdb::Event>>>::_Vector_impl" = type { %"struct.std::_Vector_base<duckdb::weak_ptr<duckdb::Event>, std::allocator<duckdb::weak_ptr<duckdb::Event>>>::_Vector_impl_data" }
%"struct.std::_Vector_base<duckdb::weak_ptr<duckdb::Event>, std::allocator<duckdb::weak_ptr<duckdb::Event>>>::_Vector_impl_data" = type { ptr, ptr, ptr }
%"class.duckdb::vector.0" = type { %"class.std::vector.1" }
%"class.std::vector.1" = type { %"struct.std::_Vector_base.2" }
%"struct.std::_Vector_base.2" = type { %"struct.std::_Vector_base<std::reference_wrapper<duckdb::Event>, std::allocator<std::reference_wrapper<duckdb::Event>>>::_Vector_impl" }
%"struct.std::_Vector_base<std::reference_wrapper<duckdb::Event>, std::allocator<std::reference_wrapper<duckdb::Event>>>::_Vector_impl" = type { %"struct.std::_Vector_base<std::reference_wrapper<duckdb::Event>, std::allocator<std::reference_wrapper<duckdb::Event>>>::_Vector_impl_data" }
%"struct.std::_Vector_base<std::reference_wrapper<duckdb::Event>, std::allocator<std::reference_wrapper<duckdb::Event>>>::_Vector_impl_data" = type { ptr, ptr, ptr }
%"class.duckdb::Event" = type <{ ptr, %"class.duckdb::enable_shared_from_this", ptr, %"struct.std::atomic", %"struct.std::atomic", %"struct.std::atomic", i64, %"class.duckdb::vector", %"class.duckdb::vector.0", %"struct.std::atomic.6", [7 x i8] }>

; Function Attrs: mustprogress nounwind uwtable
define linkonce_odr void @_ZNSt15__new_allocatorISt17reference_wrapperIN6duckdb5EventEEEC2Ev(ptr noundef nonnull align 1 dereferenceable(1) %0) unnamed_addr #1 comdat align 2 {
  %2 = alloca ptr, align 8
  store ptr %0, ptr %2, align 8, !tbaa !1378
  ret void
}

; Function Attrs: mustprogress nounwind uwtable
define linkonce_odr void @_ZNSt15__new_allocatorIN6duckdb8weak_ptrINS0_5EventELb1EEEEC2Ev(ptr noundef nonnull align 1 dereferenceable(1) %0) unnamed_addr #1 comdat align 2 {
  %2 = alloca ptr, align 8
  store ptr %0, ptr %2, align 8, !tbaa !1387
  ret void
}

; Function Attrs: mustprogress nounwind uwtable
define linkonce_odr void @_ZNSt12_Vector_baseISt17reference_wrapperIN6duckdb5EventEESaIS3_EE17_Vector_impl_dataC2Ev(ptr noundef nonnull align 8 dereferenceable(24) %0) unnamed_addr #1 comdat align 2 {
  %2 = alloca ptr, align 8
  store ptr %0, ptr %2, align 8, !tbaa !1902
  %3 = load ptr, ptr %2, align 8
  %4 = getelementptr inbounds nuw %"struct.std::_Vector_base<std::reference_wrapper<duckdb::Event>, std::allocator<std::reference_wrapper<duckdb::Event>>>::_Vector_impl_data", ptr %3, i32 0, i32 0
  store ptr null, ptr %4, align 8, !tbaa !589
  %5 = getelementptr inbounds nuw %"struct.std::_Vector_base<std::reference_wrapper<duckdb::Event>, std::allocator<std::reference_wrapper<duckdb::Event>>>::_Vector_impl_data", ptr %3, i32 0, i32 1
  store ptr null, ptr %5, align 8, !tbaa !588
  %6 = getelementptr inbounds nuw %"struct.std::_Vector_base<std::reference_wrapper<duckdb::Event>, std::allocator<std::reference_wrapper<duckdb::Event>>>::_Vector_impl_data", ptr %3, i32 0, i32 2
  store ptr null, ptr %6, align 8, !tbaa !1377
  ret void
}

; Function Attrs: mustprogress nounwind uwtable
define linkonce_odr void @_ZNSaISt17reference_wrapperIN6duckdb5EventEEEC2Ev(ptr noundef nonnull align 1 dereferenceable(1) %0) unnamed_addr #1 comdat align 2 {
  %2 = alloca ptr, align 8
  store ptr %0, ptr %2, align 8, !tbaa !1373
  %3 = load ptr, ptr %2, align 8
  call void @_ZNSt15__new_allocatorISt17reference_wrapperIN6duckdb5EventEEEC2Ev(ptr noundef nonnull align 1 dereferenceable(1) %3) #24
  ret void
}

; Function Attrs: mustprogress nounwind uwtable
define linkonce_odr void @_ZNSt12_Vector_baseIN6duckdb8weak_ptrINS0_5EventELb1EEESaIS3_EE17_Vector_impl_dataC2Ev(ptr noundef nonnull align 8 dereferenceable(24) %0) unnamed_addr #1 comdat align 2 {
  %2 = alloca ptr, align 8
  store ptr %0, ptr %2, align 8, !tbaa !1905
  %3 = load ptr, ptr %2, align 8
  %4 = getelementptr inbounds nuw %"struct.std::_Vector_base<duckdb::weak_ptr<duckdb::Event>, std::allocator<duckdb::weak_ptr<duckdb::Event>>>::_Vector_impl_data", ptr %3, i32 0, i32 0
  store ptr null, ptr %4, align 8, !tbaa !1384
  %5 = getelementptr inbounds nuw %"struct.std::_Vector_base<duckdb::weak_ptr<duckdb::Event>, std::allocator<duckdb::weak_ptr<duckdb::Event>>>::_Vector_impl_data", ptr %3, i32 0, i32 1
  store ptr null, ptr %5, align 8, !tbaa !1907
  %6 = getelementptr inbounds nuw %"struct.std::_Vector_base<duckdb::weak_ptr<duckdb::Event>, std::allocator<duckdb::weak_ptr<duckdb::Event>>>::_Vector_impl_data", ptr %3, i32 0, i32 2
  store ptr null, ptr %6, align 8, !tbaa !1385
  ret void
}

; Function Attrs: mustprogress nounwind uwtable
define linkonce_odr void @_ZNSaIN6duckdb8weak_ptrINS_5EventELb1EEEEC2Ev(ptr noundef nonnull align 1 dereferenceable(1) %0) unnamed_addr #1 comdat align 2 {
  %2 = alloca ptr, align 8
  store ptr %0, ptr %2, align 8, !tbaa !1380
  %3 = load ptr, ptr %2, align 8
  call void @_ZNSt15__new_allocatorIN6duckdb8weak_ptrINS0_5EventELb1EEEEC2Ev(ptr noundef nonnull align 1 dereferenceable(1) %3) #24
  ret void
}

; Function Attrs: mustprogress nounwind uwtable
define linkonce_odr void @_ZNSt12__weak_countILN9__gnu_cxx12_Lock_policyE2EEC2Ev(ptr noundef nonnull align 8 dereferenceable(8) %0) unnamed_addr #1 comdat align 2 {
  %2 = alloca ptr, align 8
  store ptr %0, ptr %2, align 8, !tbaa !1396
  %3 = load ptr, ptr %2, align 8
  %4 = getelementptr inbounds nuw %"class.std::__weak_count", ptr %3, i32 0, i32 0
  store ptr null, ptr %4, align 8, !tbaa !1398
  ret void
}

; Function Attrs: mustprogress nounwind uwtable
define linkonce_odr void @_ZNSt12_Vector_baseISt17reference_wrapperIN6duckdb5EventEESaIS3_EE12_Vector_implC2Ev(ptr noundef nonnull align 8 dereferenceable(24) %0) unnamed_addr #1 comdat align 2 {
  %2 = alloca ptr, align 8
  store ptr %0, ptr %2, align 8, !tbaa !1900
  %3 = load ptr, ptr %2, align 8
  call void @_ZNSaISt17reference_wrapperIN6duckdb5EventEEEC2Ev(ptr noundef nonnull align 1 dereferenceable(1) %3) #24
  call void @_ZNSt12_Vector_baseISt17reference_wrapperIN6duckdb5EventEESaIS3_EE17_Vector_impl_dataC2Ev(ptr noundef nonnull align 8 dereferenceable(24) %3) #24
  ret void
}

; Function Attrs: mustprogress nounwind uwtable
define linkonce_odr void @_ZNSt12_Vector_baseIN6duckdb8weak_ptrINS0_5EventELb1EEESaIS3_EE12_Vector_implC2Ev(ptr noundef nonnull align 8 dereferenceable(24) %0) unnamed_addr #1 comdat align 2 {
  %2 = alloca ptr, align 8
  store ptr %0, ptr %2, align 8, !tbaa !1898
  %3 = load ptr, ptr %2, align 8
  call void @_ZNSaIN6duckdb8weak_ptrINS_5EventELb1EEEEC2Ev(ptr noundef nonnull align 1 dereferenceable(1) %3) #24
  call void @_ZNSt12_Vector_baseIN6duckdb8weak_ptrINS0_5EventELb1EEESaIS3_EE17_Vector_impl_dataC2Ev(ptr noundef nonnull align 8 dereferenceable(24) %3) #24
  ret void
}

; Function Attrs: mustprogress nounwind uwtable
define linkonce_odr void @_ZNSt10__weak_ptrIN6duckdb5EventELN9__gnu_cxx12_Lock_policyE2EEC2Ev(ptr noundef nonnull align 8 dereferenceable(16) %0) unnamed_addr #1 comdat align 2 {
  %2 = alloca ptr, align 8
  store ptr %0, ptr %2, align 8, !tbaa !1895
  %3 = load ptr, ptr %2, align 8
  %4 = getelementptr inbounds nuw %"class.std::__weak_ptr", ptr %3, i32 0, i32 0
  store ptr null, ptr %4, align 8, !tbaa !1897
  %5 = getelementptr inbounds nuw %"class.std::__weak_ptr", ptr %3, i32 0, i32 1
  call void @_ZNSt12__weak_countILN9__gnu_cxx12_Lock_policyE2EEC2Ev(ptr noundef nonnull align 8 dereferenceable(8) %5) #24
  ret void
}

; Function Attrs: mustprogress nounwind uwtable
define linkonce_odr void @_ZNSt12_Vector_baseISt17reference_wrapperIN6duckdb5EventEESaIS3_EEC2Ev(ptr noundef nonnull align 8 dereferenceable(24) %0) unnamed_addr #1 comdat align 2 {
  %2 = alloca ptr, align 8
  store ptr %0, ptr %2, align 8, !tbaa !1375
  %3 = load ptr, ptr %2, align 8
  %4 = getelementptr inbounds nuw %"struct.std::_Vector_base.2", ptr %3, i32 0, i32 0
  call void @_ZNSt12_Vector_baseISt17reference_wrapperIN6duckdb5EventEESaIS3_EE12_Vector_implC2Ev(ptr noundef nonnull align 8 dereferenceable(24) %4) #24
  ret void
}

; Function Attrs: mustprogress nounwind uwtable
define linkonce_odr void @_ZNSt12_Vector_baseIN6duckdb8weak_ptrINS0_5EventELb1EEESaIS3_EEC2Ev(ptr noundef nonnull align 8 dereferenceable(24) %0) unnamed_addr #1 comdat align 2 {
  %2 = alloca ptr, align 8
  store ptr %0, ptr %2, align 8, !tbaa !1382
  %3 = load ptr, ptr %2, align 8
  %4 = getelementptr inbounds nuw %"struct.std::_Vector_base", ptr %3, i32 0, i32 0
  call void @_ZNSt12_Vector_baseIN6duckdb8weak_ptrINS0_5EventELb1EEESaIS3_EE12_Vector_implC2Ev(ptr noundef nonnull align 8 dereferenceable(24) %4) #24
  ret void
}

; Function Attrs: mustprogress nounwind uwtable
define linkonce_odr void @_ZNSt8weak_ptrIN6duckdb5EventEEC2Ev(ptr noundef nonnull align 8 dereferenceable(16) %0) unnamed_addr #1 comdat align 2 {
  %2 = alloca ptr, align 8
  store ptr %0, ptr %2, align 8, !tbaa !1893
  %3 = load ptr, ptr %2, align 8
  call void @_ZNSt10__weak_ptrIN6duckdb5EventELN9__gnu_cxx12_Lock_policyE2EEC2Ev(ptr noundef nonnull align 8 dereferenceable(16) %3) #24
  ret void
}

; Function Attrs: mustprogress nounwind uwtable
define linkonce_odr void @_ZNSt13__atomic_baseIbEC2Eb(ptr noundef nonnull align 1 dereferenceable(1) %0, i1 noundef zeroext %1) unnamed_addr #1 comdat align 2 {
  %3 = alloca ptr, align 8
  %4 = alloca i8, align 1
  store ptr %0, ptr %3, align 8, !tbaa !1872
  %5 = zext i1 %1 to i8
  store i8 %5, ptr %4, align 1, !tbaa !151
  %6 = load ptr, ptr %3, align 8
  %7 = getelementptr inbounds nuw %"struct.std::__atomic_base.7", ptr %6, i32 0, i32 0
  %8 = load i8, ptr %4, align 1, !tbaa !151, !range !152, !noundef !153
  %9 = trunc i8 %8 to i1
  %10 = zext i1 %9 to i8
  store i8 %10, ptr %7, align 1, !tbaa !1904
  ret void
}

; Function Attrs: mustprogress nounwind uwtable
define linkonce_odr void @_ZNSt6vectorISt17reference_wrapperIN6duckdb5EventEESaIS3_EEC2Ev(ptr noundef nonnull align 8 dereferenceable(24) %0) unnamed_addr #1 comdat align 2 {
  %2 = alloca ptr, align 8
  store ptr %0, ptr %2, align 8, !tbaa !586
  %3 = load ptr, ptr %2, align 8
  call void @_ZNSt12_Vector_baseISt17reference_wrapperIN6duckdb5EventEESaIS3_EEC2Ev(ptr noundef nonnull align 8 dereferenceable(24) %3) #24
  ret void
}

; Function Attrs: mustprogress nounwind uwtable
define linkonce_odr void @_ZNSt6vectorIN6duckdb8weak_ptrINS0_5EventELb1EEESaIS3_EEC2Ev(ptr noundef nonnull align 8 dereferenceable(24) %0) unnamed_addr #1 comdat align 2 {
  %2 = alloca ptr, align 8
  store ptr %0, ptr %2, align 8, !tbaa !676
  %3 = load ptr, ptr %2, align 8
  call void @_ZNSt12_Vector_baseIN6duckdb8weak_ptrINS0_5EventELb1EEESaIS3_EEC2Ev(ptr noundef nonnull align 8 dereferenceable(24) %3) #24
  ret void
}

; Function Attrs: mustprogress nounwind uwtable
define linkonce_odr void @_ZNSt13__atomic_baseImEC2Em(ptr noundef nonnull align 8 dereferenceable(8) %0, i64 noundef %1) unnamed_addr #1 comdat align 2 {
  %3 = alloca ptr, align 8
  %4 = alloca i64, align 8
  store ptr %0, ptr %3, align 8, !tbaa !626
  store i64 %1, ptr %4, align 8, !tbaa !150
  %5 = load ptr, ptr %3, align 8
  %6 = getelementptr inbounds nuw %"struct.std::__atomic_base", ptr %5, i32 0, i32 0
  %7 = load i64, ptr %4, align 8, !tbaa !150
  store i64 %7, ptr %6, align 8, !tbaa !1727
  ret void
}

; Function Attrs: noinline noreturn nounwind uwtable
define linkonce_odr hidden void @__clang_call_terminate(ptr noundef %0) #6 comdat {
  %2 = call ptr @__cxa_begin_catch(ptr %0) #24
  call void @_ZSt9terminatev() #25
  unreachable
}

; Function Attrs: mustprogress nounwind uwtable
define linkonce_odr void @_ZN6duckdb8weak_ptrINS_5EventELb1EEC2Ev(ptr noundef nonnull align 8 dereferenceable(16) %0) unnamed_addr #1 comdat align 2 {
  %2 = alloca ptr, align 8
  store ptr %0, ptr %2, align 8, !tbaa !675
  %3 = load ptr, ptr %2, align 8
  %4 = getelementptr inbounds nuw %"class.duckdb::weak_ptr", ptr %3, i32 0, i32 0
  call void @llvm.memset.p0.i64(ptr align 8 %4, i8 0, i64 16, i1 false)
  call void @_ZNSt8weak_ptrIN6duckdb5EventEEC2Ev(ptr noundef nonnull align 8 dereferenceable(16) %4) #24
  ret void
}

; Function Attrs: mustprogress nounwind uwtable
define linkonce_odr void @_ZNSt6atomicIbEC2Eb(ptr noundef nonnull align 1 dereferenceable(1) %0, i1 noundef zeroext %1) unnamed_addr #1 comdat align 2 {
  %3 = alloca ptr, align 8
  %4 = alloca i8, align 1
  store ptr %0, ptr %3, align 8, !tbaa !654
  %5 = zext i1 %1 to i8
  store i8 %5, ptr %4, align 1, !tbaa !151
  %6 = load ptr, ptr %3, align 8
  %7 = getelementptr inbounds nuw %"struct.std::atomic.6", ptr %6, i32 0, i32 0
  %8 = load i8, ptr %4, align 1, !tbaa !151, !range !152, !noundef !153
  %9 = trunc i8 %8 to i1
  call void @_ZNSt13__atomic_baseIbEC2Eb(ptr noundef nonnull align 1 dereferenceable(1) %7, i1 noundef zeroext %9) #24
  ret void
}

; Function Attrs: mustprogress nounwind uwtable
define linkonce_odr void @_ZN6duckdb6vectorISt17reference_wrapperINS_5EventEELb1EEC2Ev(ptr noundef nonnull align 8 dereferenceable(24) %0) unnamed_addr #1 comdat align 2 {
  %2 = alloca ptr, align 8
  store ptr %0, ptr %2, align 8, !tbaa !570
  %3 = load ptr, ptr %2, align 8
  call void @_ZNSt6vectorISt17reference_wrapperIN6duckdb5EventEESaIS3_EEC2Ev(ptr noundef nonnull align 8 dereferenceable(24) %3) #24
  ret void
}

; Function Attrs: mustprogress nounwind uwtable
define linkonce_odr void @_ZN6duckdb6vectorINS_8weak_ptrINS_5EventELb1EEELb1EEC2Ev(ptr noundef nonnull align 8 dereferenceable(24) %0) unnamed_addr #1 comdat align 2 {
  %2 = alloca ptr, align 8
  store ptr %0, ptr %2, align 8, !tbaa !673
  %3 = load ptr, ptr %2, align 8
  call void @_ZNSt6vectorIN6duckdb8weak_ptrINS0_5EventELb1EEESaIS3_EEC2Ev(ptr noundef nonnull align 8 dereferenceable(24) %3) #24
  ret void
}

; Function Attrs: mustprogress nounwind uwtable
define linkonce_odr void @_ZNSt6atomicImEC2Em(ptr noundef nonnull align 8 dereferenceable(8) %0, i64 noundef %1) unnamed_addr #1 comdat align 2 {
  %3 = alloca ptr, align 8
  %4 = alloca i64, align 8
  store ptr %0, ptr %3, align 8, !tbaa !364
  store i64 %1, ptr %4, align 8, !tbaa !150
  %5 = load ptr, ptr %3, align 8
  %6 = load i64, ptr %4, align 8, !tbaa !150
  call void @_ZNSt13__atomic_baseImEC2Em(ptr noundef nonnull align 8 dereferenceable(8) %5, i64 noundef %6) #24
  ret void
}

; Function Attrs: mustprogress nounwind uwtable
define linkonce_odr void @_ZN6duckdb23enable_shared_from_thisINS_5EventEEC2Ev(ptr noundef nonnull align 8 dereferenceable(16) %0) unnamed_addr #1 comdat align 2 personality ptr @__gxx_personality_v0 {
  %2 = alloca ptr, align 8
  store ptr %0, ptr %2, align 8, !tbaa !671
  %3 = load ptr, ptr %2, align 8
  %4 = getelementptr inbounds nuw %"class.duckdb::enable_shared_from_this", ptr %3, i32 0, i32 0
  invoke void @_ZN6duckdb8weak_ptrINS_5EventELb1EEC2Ev(ptr noundef nonnull align 8 dereferenceable(16) %4)
          to label %5 unwind label %6

5:                                                ; preds = %1
  ret void

6:                                                ; preds = %1
  %7 = landingpad { ptr, i32 }
          catch ptr null
  %8 = extractvalue { ptr, i32 } %7, 0
  call void @__clang_call_terminate(ptr %8) #25
  unreachable
}

; Function Attrs: mustprogress nounwind uwtable
define void @_ZN6duckdb5EventC2ERNS_8ExecutorE(ptr noundef nonnull align 8 dereferenceable(113) %0, ptr noundef nonnull align 8 dereferenceable(424) %1) unnamed_addr #1 align 2 {
  %3 = alloca ptr, align 8
  %4 = alloca ptr, align 8
  store ptr %0, ptr %3, align 8, !tbaa !60
  store ptr %1, ptr %4, align 8, !tbaa !62
  %5 = load ptr, ptr %3, align 8
  %6 = getelementptr inbounds i8, ptr %5, i64 8
  call void @_ZN6duckdb23enable_shared_from_thisINS_5EventEEC2Ev(ptr noundef nonnull align 8 dereferenceable(16) %6) #24
  store ptr getelementptr inbounds inrange(-16, 48) ({ [8 x ptr] }, ptr @_ZTVN6duckdb5EventE, i32 0, i32 0, i32 2), ptr %5, align 8, !tbaa !57
  %7 = getelementptr inbounds nuw %"class.duckdb::Event", ptr %5, i32 0, i32 2
  %8 = load ptr, ptr %4, align 8, !tbaa !62
  store ptr %8, ptr %7, align 8, !tbaa !62
  %9 = getelementptr inbounds nuw %"class.duckdb::Event", ptr %5, i32 0, i32 3
  call void @_ZNSt6atomicImEC2Em(ptr noundef nonnull align 8 dereferenceable(8) %9, i64 noundef 0) #24
  %10 = getelementptr inbounds nuw %"class.duckdb::Event", ptr %5, i32 0, i32 4
  call void @_ZNSt6atomicImEC2Em(ptr noundef nonnull align 8 dereferenceable(8) %10, i64 noundef 0) #24
  %11 = getelementptr inbounds nuw %"class.duckdb::Event", ptr %5, i32 0, i32 5
  call void @_ZNSt6atomicImEC2Em(ptr noundef nonnull align 8 dereferenceable(8) %11, i64 noundef 0) #24
  %12 = getelementptr inbounds nuw %"class.duckdb::Event", ptr %5, i32 0, i32 6
  store i64 0, ptr %12, align 8, !tbaa !63
  %13 = getelementptr inbounds nuw %"class.duckdb::Event", ptr %5, i32 0, i32 7
  call void @_ZN6duckdb6vectorINS_8weak_ptrINS_5EventELb1EEELb1EEC2Ev(ptr noundef nonnull align 8 dereferenceable(24) %13) #24
  %14 = getelementptr inbounds nuw %"class.duckdb::Event", ptr %5, i32 0, i32 8
  call void @_ZN6duckdb6vectorISt17reference_wrapperINS_5EventEELb1EEC2Ev(ptr noundef nonnull align 8 dereferenceable(24) %14) #24
  %15 = getelementptr inbounds nuw %"class.duckdb::Event", ptr %5, i32 0, i32 9
  call void @_ZNSt6atomicIbEC2Eb(ptr noundef nonnull align 1 dereferenceable(1) %15, i1 noundef zeroext false) #24
  ret void
}