; Function Attrs: mustprogress nofree norecurse nosync nounwind willreturn memory(argmem: write) uwtable
define void @_ZN6duckdb5EventC2ERNS_8ExecutorE(ptr noundef nonnull writeonly align 8 captures(none) dereferenceable(113) initializes((0, 113)) %0, ptr noundef nonnull align 8 dereferenceable(424) %1) unnamed_addr #1 align 2 personality ptr @__gxx_personality_v0 {
  %3 = getelementptr inbounds nuw i8, ptr %0, i64 8
  tail call void @llvm.memset.p0.i64(ptr noundef nonnull align 8 dereferenceable(16) %3, i8 0, i64 16, i1 false)
  store ptr getelementptr inbounds nuw inrange(-16, 48) (i8, ptr @_ZTVN6duckdb5EventE, i64 16), ptr %0, align 8, !tbaa !54
  %4 = getelementptr inbounds nuw i8, ptr %0, i64 24
  store ptr %1, ptr %4, align 8, !tbaa !53
  %5 = getelementptr inbounds nuw i8, ptr %0, i64 32
  tail call void @llvm.memset.p0.i64(ptr noundef nonnull align 8 dereferenceable(81) %5, i8 0, i64 81, i1 false)
  ret void
}